target datalayout = "e-m:e-p270:32:32-p271:32:32-p272:64:64-i64:64-i128:128-f80:128-n8:16:32:64-S128"
target triple = "x86_64-pc-linux-gnu"

%struct.Cec_ParCec_t_ = type { i32, i32, i32, i32, i32, i32, i32, i32, i32 }

; Function Attrs: nounwind uwtable
define void @Cec_ManCecSetDefaultParams(ptr noundef %0) #0 {
  %2 = alloca ptr, align 8
  store ptr %0, ptr %2, align 8, !tbaa !66
  %3 = load ptr, ptr %2, align 8, !tbaa !66
  call void @llvm.memset.p0.i64(ptr align 4 %3, i8 0, i64 36, i1 false)
  %4 = load ptr, ptr %2, align 8, !tbaa !66
  %5 = getelementptr inbounds nuw %struct.Cec_ParCec_t_, ptr %4, i32 0, i32 0
  store i32 1000, ptr %5, align 4, !tbaa !68
  %6 = load ptr, ptr %2, align 8, !tbaa !66
  %7 = getelementptr inbounds nuw %struct.Cec_ParCec_t_, ptr %6, i32 0, i32 1
  store i32 0, ptr %7, align 4, !tbaa !70
  %8 = load ptr, ptr %2, align 8, !tbaa !66
  %9 = getelementptr inbounds nuw %struct.Cec_ParCec_t_, ptr %8, i32 0, i32 2
  store i32 0, ptr %9, align 4, !tbaa !71
  %10 = load ptr, ptr %2, align 8, !tbaa !66
  %11 = getelementptr inbounds nuw %struct.Cec_ParCec_t_, ptr %10, i32 0, i32 3
  store i32 0, ptr %11, align 4, !tbaa !72
  %12 = load ptr, ptr %2, align 8, !tbaa !66
  %13 = getelementptr inbounds nuw %struct.Cec_ParCec_t_, ptr %12, i32 0, i32 6
  store i32 0, ptr %13, align 4, !tbaa !73
  %14 = load ptr, ptr %2, align 8, !tbaa !66
  %15 = getelementptr inbounds nuw %struct.Cec_ParCec_t_, ptr %14, i32 0, i32 7
  store i32 0, ptr %15, align 4, !tbaa !74
  %16 = load ptr, ptr %2, align 8, !tbaa !66
  %17 = getelementptr inbounds nuw %struct.Cec_ParCec_t_, ptr %16, i32 0, i32 8
  store i32 -1, ptr %17, align 4, !tbaa !75
  ret void
}