; Function Attrs: mustprogress nofree norecurse nosync nounwind willreturn memory(argmem: write) uwtable
define void @Cec_ManCecSetDefaultParams(ptr noundef writeonly captures(none) initializes((0, 36)) %0) local_unnamed_addr #0 {
  %2 = getelementptr inbounds nuw i8, ptr %0, i64 16
  store i64 0, ptr %2, align 4
  store i32 1000, ptr %0, align 4, !tbaa !41
  %3 = getelementptr inbounds nuw i8, ptr %0, i64 4
  store i32 0, ptr %3, align 4, !tbaa !43
  %4 = getelementptr inbounds nuw i8, ptr %0, i64 8
  store i32 0, ptr %4, align 4, !tbaa !44
  %5 = getelementptr inbounds nuw i8, ptr %0, i64 12
  store i32 0, ptr %5, align 4, !tbaa !45
  %6 = getelementptr inbounds nuw i8, ptr %0, i64 24
  store i32 0, ptr %6, align 4, !tbaa !46
  %7 = getelementptr inbounds nuw i8, ptr %0, i64 28
  store i32 0, ptr %7, align 4, !tbaa !47
  %8 = getelementptr inbounds nuw i8, ptr %0, i64 32
  store i32 -1, ptr %8, align 4, !tbaa !48
  ret void
}